; Function Attrs: nounwind uwtable
define noalias nonnull ptr @l_Nat_foldM_loop___at_Lean_IR_EmitC_emitSimpleExternalCall___spec__1___lambda__1(ptr noundef readonly captures(none) %0, ptr noundef %1, ptr readnone captures(none) %2, ptr readnone captures(none) %3, ptr noundef %4) local_unnamed_addr #0 {
  %6 = ptrtoint ptr %1 to i64
  %7 = lshr i64 %6, 1
  %8 = getelementptr inbounds nuw i8, ptr %0, i64 24
  %9 = getelementptr inbounds nuw [0 x ptr], ptr %8, i64 0, i64 %7
  %10 = load ptr, ptr %9, align 8, !tbaa !4
  %11 = ptrtoint ptr %10 to i64
  %12 = and i64 %11, 1
  %.not.i.i = icmp eq i64 %12, 0
  br i1 %.not.i.i, label %13, label %lean_array_fget.exit

13:                                               ; preds = %5
  %.val.i.i.i = load i32, ptr %10, align 4, !tbaa !8
  %14 = icmp sgt i32 %.val.i.i.i, 0
  br i1 %14, label %15, label %17, !prof !11

15:                                               ; preds = %13
  %16 = add nuw i32 %.val.i.i.i, 1
  store i32 %16, ptr %10, align 4, !tbaa !8
  br label %lean_array_fget.exit

17:                                               ; preds = %13
  %.not.i.i.i = icmp eq i32 %.val.i.i.i, 0
  br i1 %.not.i.i.i, label %lean_array_fget.exit, label %18

18:                                               ; preds = %17
  tail call void @lean_inc_ref_cold(ptr noundef nonnull %10) #5
  br label %lean_array_fget.exit

lean_array_fget.exit:                             ; preds = %5, %15, %17, %18
  %19 = tail call ptr @l_Lean_IR_EmitC_argToCString(ptr noundef %10)
  %20 = tail call ptr @lean_string_append(ptr noundef %4, ptr noundef %19) #5
  %21 = ptrtoint ptr %19 to i64
  %22 = and i64 %21, 1
  %.not.i25 = icmp eq i64 %22, 0
  br i1 %.not.i25, label %23, label %lean_dec.exit.i

23:                                               ; preds = %lean_array_fget.exit
  %24 = load i32, ptr %19, align 4, !tbaa !8
  %25 = icmp sgt i32 %24, 1
  br i1 %25, label %26, label %28, !prof !11

26:                                               ; preds = %23
  %27 = add nsw i32 %24, -1
  store i32 %27, ptr %19, align 4, !tbaa !8
  br label %lean_dec.exit.i

28:                                               ; preds = %23
  %.not.i.i26 = icmp eq i32 %24, 0
  br i1 %.not.i.i26, label %lean_dec.exit.i, label %29

29:                                               ; preds = %28
  tail call void @lean_dec_ref_cold(ptr noundef nonnull %19) #5
  br label %lean_dec.exit.i

lean_dec.exit.i:                                  ; preds = %29, %28, %26, %lean_array_fget.exit
  tail call void @lean_inc_heartbeat() #5
  %30 = tail call noalias ptr @mi_malloc_small(i64 noundef 24) #5
  %31 = icmp eq ptr %30, null
  br i1 %31, label %32, label %33

32:                                               ; preds = %lean_dec.exit.i
  tail call void @lean_internal_panic_out_of_memory() #6
  unreachable

33:                                               ; preds = %lean_dec.exit.i
  %34 = getelementptr inbounds nuw i8, ptr %30, i64 4
  store i32 1, ptr %30, align 4, !tbaa !8
  store i32 131096, ptr %34, align 4
  %35 = getelementptr inbounds nuw i8, ptr %30, i64 8
  %36 = getelementptr inbounds nuw i8, ptr %30, i64 16
  store ptr %20, ptr %36, align 8, !tbaa !4
  store ptr inttoptr (i64 1 to ptr), ptr %35, align 8, !tbaa !4
  ret ptr %30
}